target datalayout = "e-m:e-p270:32:32-p271:32:32-p272:64:64-i64:64-i128:128-f80:128-n8:16:32:64-S128"
target triple = "x86_64-pc-linux-gnu"

%struct.H5B2_t = type { ptr, ptr }

@H5B2_init_g = global i8 0, align 1
@H5_libterm_g = external global i8, align 1
@.str = private unnamed_addr constant [98 x i8] c"generated/home/dtcxzyw/WorkSpace/Projects/compilers/llvm-opt-benchmark/bench/hdf5/hdf5/src/H5B2.c\00", align 1
@__func__.H5B2_create = private unnamed_addr constant [12 x i8] c"H5B2_create\00", align 1
@H5E_BTREE_g = external global i64, align 8
@H5E_CANTINIT_g = external global i64, align 8
@.str.1 = private unnamed_addr constant [30 x i8] c"can't create v2 B-tree header\00", align 1
@H5E_CANTALLOC_g = external global i64, align 8
@.str.2 = private unnamed_addr constant [44 x i8] c"memory allocation failed for v2 B-tree info\00", align 1
@H5E_CANTPROTECT_g = external global i64, align 8
@.str.3 = private unnamed_addr constant [35 x i8] c"unable to protect v2 B-tree header\00", align 1
@H5E_CANTINC_g = external global i64, align 8
@.str.4 = private unnamed_addr constant [59 x i8] c"can't increment reference count on shared v2 B-tree header\00", align 1
@.str.5 = private unnamed_addr constant [64 x i8] c"can't increment file reference count on shared v2 B-tree header\00", align 1
@H5E_CANTUNPROTECT_g = external global i64, align 8
@.str.6 = private unnamed_addr constant [35 x i8] c"unable to release v2 B-tree header\00", align 1
@H5E_CANTCLOSEOBJ_g = external global i64, align 8
@.str.7 = private unnamed_addr constant [26 x i8] c"unable to close v2 B-tree\00", align 1
@H5_H5B2_t_reg_free_list = internal global { i8, [3 x i8], i32, i32, [4 x i8], ptr, i64, ptr } { i8 0, [3 x i8] zeroinitializer, i32 0, i32 0, [4 x i8] zeroinitializer, ptr @.str.37, i64 16, ptr null }, align 8

; Function Attrs: nounwind uwtable
define ptr @H5B2_create(ptr noundef %0, ptr noundef %1, ptr noundef %2) #0 {
  %4 = alloca ptr, align 8
  %5 = alloca ptr, align 8
  %6 = alloca ptr, align 8
  %7 = alloca ptr, align 8
  %8 = alloca ptr, align 8
  %9 = alloca i64, align 8
  %10 = alloca ptr, align 8
  %11 = alloca i8, align 1
  store ptr %0, ptr %4, align 8, !tbaa !3
  store ptr %1, ptr %5, align 8, !tbaa !8
  store ptr %2, ptr %6, align 8, !tbaa !10
  call void @llvm.lifetime.start.p0(i64 8, ptr %7) #6
  store ptr null, ptr %7, align 8, !tbaa !11
  call void @llvm.lifetime.start.p0(i64 8, ptr %8) #6
  store ptr null, ptr %8, align 8, !tbaa !13
  call void @llvm.lifetime.start.p0(i64 8, ptr %9) #6
  call void @llvm.lifetime.start.p0(i64 8, ptr %10) #6
  store ptr null, ptr %10, align 8, !tbaa !11
  call void @llvm.lifetime.start.p0(i64 1, ptr %11) #6
  store i8 0, ptr %11, align 1, !tbaa !15
  %12 = load i8, ptr @H5B2_init_g, align 1, !tbaa !15, !range !17, !noundef !18
  %13 = trunc i8 %12 to i1
  br i1 %13, label %18, label %14

14:                                               ; preds = %3
  %15 = load i8, ptr @H5_libterm_g, align 1, !tbaa !15, !range !17, !noundef !18
  %16 = trunc i8 %15 to i1
  %17 = xor i1 %16, true
  br label %18

18:                                               ; preds = %14, %3
  %19 = phi i1 [ false, %3 ], [ %17, %14 ]
  %20 = xor i1 %19, true
  %21 = xor i1 %20, true
  %22 = zext i1 %21 to i32
  %23 = sext i32 %22 to i64
  %24 = call i64 @llvm.expect.i64(i64 %23, i64 0)
  %25 = icmp ne i64 %24, 0
  br i1 %25, label %26, label %27

26:                                               ; preds = %18
  store i8 1, ptr @H5B2_init_g, align 1, !tbaa !15
  br label %27

27:                                               ; preds = %26, %18
  %28 = load i8, ptr @H5B2_init_g, align 1, !tbaa !15, !range !17, !noundef !18
  %29 = trunc i8 %28 to i1
  br i1 %29, label %34, label %30

30:                                               ; preds = %27
  %31 = load i8, ptr @H5_libterm_g, align 1, !tbaa !15, !range !17, !noundef !18
  %32 = trunc i8 %31 to i1
  %33 = xor i1 %32, true
  br label %34

34:                                               ; preds = %30, %27
  %35 = phi i1 [ true, %27 ], [ %33, %30 ]
  %36 = xor i1 %35, true
  %37 = xor i1 %36, true
  %38 = zext i1 %37 to i32
  %39 = sext i32 %38 to i64
  %40 = call i64 @llvm.expect.i64(i64 %39, i64 1)
  %41 = icmp ne i64 %40, 0
  br i1 %41, label %42, label %223

42:                                               ; preds = %34
  %43 = load ptr, ptr %4, align 8, !tbaa !3
  %44 = load ptr, ptr %5, align 8, !tbaa !8
  %45 = load ptr, ptr %6, align 8, !tbaa !10
  %46 = call i64 @H5B2__hdr_create(ptr noundef %43, ptr noundef %44, ptr noundef %45)
  store i64 %46, ptr %9, align 8, !tbaa !19
  %47 = icmp eq i64 -1, %46
  br i1 %47, label %48, label %67

48:                                               ; preds = %42
  br label %49

49:                                               ; preds = %48
  br label %50

50:                                               ; preds = %49
  br label %51

51:                                               ; preds = %50
  %52 = load i64, ptr @H5E_BTREE_g, align 8, !tbaa !19
  %53 = load i64, ptr @H5E_CANTINIT_g, align 8, !tbaa !19
  %54 = call i32 (ptr, ptr, i32, i64, i64, ptr, ...) @H5E_printf_stack(ptr noundef @.str, ptr noundef @__func__.H5B2_create, i32 noundef 142, i64 noundef %52, i64 noundef %53, ptr noundef @.str.1)
  br label %55

55:                                               ; preds = %51
  br label %56

56:                                               ; preds = %55
  store i8 1, ptr %11, align 1, !tbaa !15
  %57 = load i8, ptr %11, align 1, !tbaa !15, !range !17, !noundef !18
  %58 = trunc i8 %57 to i1
  %59 = zext i1 %58 to i8
  store i8 %59, ptr %11, align 1, !tbaa !15
  br label %60

60:                                               ; preds = %56
  br label %61

61:                                               ; preds = %60
  br label %62

62:                                               ; preds = %61
  store ptr null, ptr %10, align 8, !tbaa !11
  br label %172

63:                                               ; No predecessors!
  br label %64

64:                                               ; preds = %63
  br label %65

65:                                               ; preds = %64
  br label %66

66:                                               ; preds = %65
  br label %67

67:                                               ; preds = %66, %42
  %68 = call noalias ptr @H5FL_reg_malloc(ptr noundef @H5_H5B2_t_reg_free_list)
  store ptr %68, ptr %7, align 8, !tbaa !11
  %69 = icmp eq ptr null, %68
  br i1 %69, label %70, label %89

70:                                               ; preds = %67
  br label %71

71:                                               ; preds = %70
  br label %72

72:                                               ; preds = %71
  br label %73

73:                                               ; preds = %72
  %74 = load i64, ptr @H5E_BTREE_g, align 8, !tbaa !19
  %75 = load i64, ptr @H5E_CANTALLOC_g, align 8, !tbaa !19
  %76 = call i32 (ptr, ptr, i32, i64, i64, ptr, ...) @H5E_printf_stack(ptr noundef @.str, ptr noundef @__func__.H5B2_create, i32 noundef 146, i64 noundef %74, i64 noundef %75, ptr noundef @.str.2)
  br label %77

77:                                               ; preds = %73
  br label %78

78:                                               ; preds = %77
  store i8 1, ptr %11, align 1, !tbaa !15
  %79 = load i8, ptr %11, align 1, !tbaa !15, !range !17, !noundef !18
  %80 = trunc i8 %79 to i1
  %81 = zext i1 %80 to i8
  store i8 %81, ptr %11, align 1, !tbaa !15
  br label %82

82:                                               ; preds = %78
  br label %83

83:                                               ; preds = %82
  br label %84

84:                                               ; preds = %83
  store ptr null, ptr %10, align 8, !tbaa !11
  br label %172

85:                                               ; No predecessors!
  br label %86

86:                                               ; preds = %85
  br label %87

87:                                               ; preds = %86
  br label %88

88:                                               ; preds = %87
  br label %89

89:                                               ; preds = %88, %67
  %90 = load ptr, ptr %4, align 8, !tbaa !3
  %91 = load i64, ptr %9, align 8, !tbaa !19
  %92 = load ptr, ptr %6, align 8, !tbaa !10
  %93 = call ptr @H5B2__hdr_protect(ptr noundef %90, i64 noundef %91, ptr noundef %92, i32 noundef 0)
  store ptr %93, ptr %8, align 8, !tbaa !13
  %94 = icmp eq ptr null, %93
  br i1 %94, label %95, label %114

95:                                               ; preds = %89
  br label %96

96:                                               ; preds = %95
  br label %97

97:                                               ; preds = %96
  br label %98

98:                                               ; preds = %97
  %99 = load i64, ptr @H5E_BTREE_g, align 8, !tbaa !19
  %100 = load i64, ptr @H5E_CANTPROTECT_g, align 8, !tbaa !19
  %101 = call i32 (ptr, ptr, i32, i64, i64, ptr, ...) @H5E_printf_stack(ptr noundef @.str, ptr noundef @__func__.H5B2_create, i32 noundef 150, i64 noundef %99, i64 noundef %100, ptr noundef @.str.3)
  br label %102

102:                                              ; preds = %98
  br label %103

103:                                              ; preds = %102
  store i8 1, ptr %11, align 1, !tbaa !15
  %104 = load i8, ptr %11, align 1, !tbaa !15, !range !17, !noundef !18
  %105 = trunc i8 %104 to i1
  %106 = zext i1 %105 to i8
  store i8 %106, ptr %11, align 1, !tbaa !15
  br label %107

107:                                              ; preds = %103
  br label %108

108:                                              ; preds = %107
  br label %109

109:                                              ; preds = %108
  store ptr null, ptr %10, align 8, !tbaa !11
  br label %172

110:                                              ; No predecessors!
  br label %111

111:                                              ; preds = %110
  br label %112

112:                                              ; preds = %111
  br label %113

113:                                              ; preds = %112
  br label %114

114:                                              ; preds = %113, %89
  %115 = load ptr, ptr %8, align 8, !tbaa !13
  %116 = load ptr, ptr %7, align 8, !tbaa !11
  %117 = getelementptr inbounds nuw %struct.H5B2_t, ptr %116, i32 0, i32 0
  store ptr %115, ptr %117, align 8, !tbaa !21
  %118 = load ptr, ptr %7, align 8, !tbaa !11
  %119 = getelementptr inbounds nuw %struct.H5B2_t, ptr %118, i32 0, i32 0
  %120 = load ptr, ptr %119, align 8, !tbaa !21
  %121 = call i32 @H5B2__hdr_incr(ptr noundef %120)
  %122 = icmp slt i32 %121, 0
  br i1 %122, label %123, label %142

123:                                              ; preds = %114
  br label %124

124:                                              ; preds = %123
  br label %125

125:                                              ; preds = %124
  br label %126

126:                                              ; preds = %125
  %127 = load i64, ptr @H5E_BTREE_g, align 8, !tbaa !19
  %128 = load i64, ptr @H5E_CANTINC_g, align 8, !tbaa !19
  %129 = call i32 (ptr, ptr, i32, i64, i64, ptr, ...) @H5E_printf_stack(ptr noundef @.str, ptr noundef @__func__.H5B2_create, i32 noundef 156, i64 noundef %127, i64 noundef %128, ptr noundef @.str.4)
  br label %130

130:                                              ; preds = %126
  br label %131

131:                                              ; preds = %130
  store i8 1, ptr %11, align 1, !tbaa !15
  %132 = load i8, ptr %11, align 1, !tbaa !15, !range !17, !noundef !18
  %133 = trunc i8 %132 to i1
  %134 = zext i1 %133 to i8
  store i8 %134, ptr %11, align 1, !tbaa !15
  br label %135

135:                                              ; preds = %131
  br label %136

136:                                              ; preds = %135
  br label %137

137:                                              ; preds = %136
  store ptr null, ptr %10, align 8, !tbaa !11
  br label %172

138:                                              ; No predecessors!
  br label %139

139:                                              ; preds = %138
  br label %140

140:                                              ; preds = %139
  br label %141

141:                                              ; preds = %140
  br label %142

142:                                              ; preds = %141, %114
  %143 = load ptr, ptr %7, align 8, !tbaa !11
  %144 = getelementptr inbounds nuw %struct.H5B2_t, ptr %143, i32 0, i32 0
  %145 = load ptr, ptr %144, align 8, !tbaa !21
  %146 = call i32 @H5B2__hdr_fuse_incr(ptr noundef %145)
  %147 = icmp slt i32 %146, 0
  br i1 %147, label %148, label %167

148:                                              ; preds = %142
  br label %149

149:                                              ; preds = %148
  br label %150

150:                                              ; preds = %149
  br label %151

151:                                              ; preds = %150
  %152 = load i64, ptr @H5E_BTREE_g, align 8, !tbaa !19
  %153 = load i64, ptr @H5E_CANTINC_g, align 8, !tbaa !19
  %154 = call i32 (ptr, ptr, i32, i64, i64, ptr, ...) @H5E_printf_stack(ptr noundef @.str, ptr noundef @__func__.H5B2_create, i32 noundef 161, i64 noundef %152, i64 noundef %153, ptr noundef @.str.5)
  br label %155

155:                                              ; preds = %151
  br label %156

156:                                              ; preds = %155
  store i8 1, ptr %11, align 1, !tbaa !15
  %157 = load i8, ptr %11, align 1, !tbaa !15, !range !17, !noundef !18
  %158 = trunc i8 %157 to i1
  %159 = zext i1 %158 to i8
  store i8 %159, ptr %11, align 1, !tbaa !15
  br label %160

160:                                              ; preds = %156
  br label %161

161:                                              ; preds = %160
  br label %162

162:                                              ; preds = %161
  store ptr null, ptr %10, align 8, !tbaa !11
  br label %172

163:                                              ; No predecessors!
  br label %164

164:                                              ; preds = %163
  br label %165

165:                                              ; preds = %164
  br label %166

166:                                              ; preds = %165
  br label %167

167:                                              ; preds = %166, %142
  %168 = load ptr, ptr %4, align 8, !tbaa !3
  %169 = load ptr, ptr %7, align 8, !tbaa !11
  %170 = getelementptr inbounds nuw %struct.H5B2_t, ptr %169, i32 0, i32 1
  store ptr %168, ptr %170, align 8, !tbaa !23
  %171 = load ptr, ptr %7, align 8, !tbaa !11
  store ptr %171, ptr %10, align 8, !tbaa !11
  br label %172

172:                                              ; preds = %167, %162, %137, %109, %84, %62
  %173 = load ptr, ptr %8, align 8, !tbaa !13
  %174 = icmp ne ptr %173, null
  br i1 %174, label %175, label %195

175:                                              ; preds = %172
  %176 = load ptr, ptr %8, align 8, !tbaa !13
  %177 = call i32 @H5B2__hdr_unprotect(ptr noundef %176, i32 noundef 0)
  %178 = icmp slt i32 %177, 0
  br i1 %178, label %179, label %195

179:                                              ; preds = %175
  br label %180

180:                                              ; preds = %179
  br label %181

181:                                              ; preds = %180
  br label %182

182:                                              ; preds = %181
  %183 = load i64, ptr @H5E_BTREE_g, align 8, !tbaa !19
  %184 = load i64, ptr @H5E_CANTUNPROTECT_g, align 8, !tbaa !19
  %185 = call i32 (ptr, ptr, i32, i64, i64, ptr, ...) @H5E_printf_stack(ptr noundef @.str, ptr noundef @__func__.H5B2_create, i32 noundef 171, i64 noundef %183, i64 noundef %184, ptr noundef @.str.6)
  br label %186

186:                                              ; preds = %182
  br label %187

187:                                              ; preds = %186
  store i8 1, ptr %11, align 1, !tbaa !15
  %188 = load i8, ptr %11, align 1, !tbaa !15, !range !17, !noundef !18
  %189 = trunc i8 %188 to i1
  %190 = zext i1 %189 to i8
  store i8 %190, ptr %11, align 1, !tbaa !15
  br label %191

191:                                              ; preds = %187
  br label %192

192:                                              ; preds = %191
  store ptr null, ptr %10, align 8, !tbaa !11
  br label %193

193:                                              ; preds = %192
  br label %194

194:                                              ; preds = %193
  br label %195

195:                                              ; preds = %194, %175, %172
  %196 = load ptr, ptr %10, align 8, !tbaa !11
  %197 = icmp ne ptr %196, null
  br i1 %197, label %222, label %198

198:                                              ; preds = %195
  %199 = load ptr, ptr %7, align 8, !tbaa !11
  %200 = icmp ne ptr %199, null
  br i1 %200, label %201, label %222

201:                                              ; preds = %198
  %202 = load ptr, ptr %7, align 8, !tbaa !11
  %203 = call i32 @H5B2_close(ptr noundef %202)
  %204 = icmp slt i32 %203, 0
  br i1 %204, label %205, label %221

205:                                              ; preds = %201
  br label %206

206:                                              ; preds = %205
  br label %207

207:                                              ; preds = %206
  br label %208

208:                                              ; preds = %207
  %209 = load i64, ptr @H5E_BTREE_g, align 8, !tbaa !19
  %210 = load i64, ptr @H5E_CANTCLOSEOBJ_g, align 8, !tbaa !19
  %211 = call i32 (ptr, ptr, i32, i64, i64, ptr, ...) @H5E_printf_stack(ptr noundef @.str, ptr noundef @__func__.H5B2_create, i32 noundef 174, i64 noundef %209, i64 noundef %210, ptr noundef @.str.7)
  br label %212

212:                                              ; preds = %208
  br label %213

213:                                              ; preds = %212
  store i8 1, ptr %11, align 1, !tbaa !15
  %214 = load i8, ptr %11, align 1, !tbaa !15, !range !17, !noundef !18
  %215 = trunc i8 %214 to i1
  %216 = zext i1 %215 to i8
  store i8 %216, ptr %11, align 1, !tbaa !15
  br label %217

217:                                              ; preds = %213
  br label %218

218:                                              ; preds = %217
  store ptr null, ptr %10, align 8, !tbaa !11
  br label %219

219:                                              ; preds = %218
  br label %220

220:                                              ; preds = %219
  br label %221

221:                                              ; preds = %220, %201
  br label %222

222:                                              ; preds = %221, %198, %195
  br label %223

223:                                              ; preds = %222, %34
  %224 = load ptr, ptr %10, align 8, !tbaa !11
  call void @llvm.lifetime.end.p0(i64 1, ptr %11) #6
  call void @llvm.lifetime.end.p0(i64 8, ptr %10) #6
  call void @llvm.lifetime.end.p0(i64 8, ptr %9) #6
  call void @llvm.lifetime.end.p0(i64 8, ptr %8) #6
  call void @llvm.lifetime.end.p0(i64 8, ptr %7) #6
  ret ptr %224
}