; Function Attrs: nounwind uwtable
define ptr @H5B2_create(ptr noundef %0, ptr noundef %1, ptr noundef %2) local_unnamed_addr #0 {
  %4 = load i8, ptr @H5B2_init_g, align 1, !tbaa !3, !range !7, !noundef !8
  %5 = trunc nuw i8 %4 to i1
  %6 = load i8, ptr @H5_libterm_g, align 1, !range !7
  %7 = trunc nuw i8 %6 to i1
  %8 = select i1 %5, i1 true, i1 %7
  br i1 %8, label %9, label %.thread, !prof !9

.thread:                                          ; preds = %3
  store i8 1, ptr @H5B2_init_g, align 1, !tbaa !3
  br label %12

9:                                                ; preds = %3
  %10 = xor i1 %7, true
  %11 = select i1 %5, i1 true, i1 %10
  br i1 %11, label %12, label %.thread33.thread, !prof !10

12:                                               ; preds = %.thread, %9
  %13 = tail call i64 @H5B2__hdr_create(ptr noundef %0, ptr noundef %1, ptr noundef %2) #7
  %14 = icmp eq i64 %13, -1
  br i1 %14, label %15, label %19

15:                                               ; preds = %12
  %16 = load i64, ptr @H5E_BTREE_g, align 8, !tbaa !11
  %17 = load i64, ptr @H5E_CANTINIT_g, align 8, !tbaa !11
  %18 = tail call i32 (ptr, ptr, i32, i64, i64, ptr, ...) @H5E_printf_stack(ptr noundef nonnull @.str, ptr noundef nonnull @__func__.H5B2_create, i32 noundef 142, i64 noundef %16, i64 noundef %17, ptr noundef nonnull @.str.1) #7
  br label %.thread33.thread

19:                                               ; preds = %12
  %20 = tail call noalias ptr @H5FL_reg_malloc(ptr noundef nonnull @H5_H5B2_t_reg_free_list) #7
  %21 = icmp eq ptr %20, null
  br i1 %21, label %22, label %26

22:                                               ; preds = %19
  %23 = load i64, ptr @H5E_BTREE_g, align 8, !tbaa !11
  %24 = load i64, ptr @H5E_CANTALLOC_g, align 8, !tbaa !11
  %25 = tail call i32 (ptr, ptr, i32, i64, i64, ptr, ...) @H5E_printf_stack(ptr noundef nonnull @.str, ptr noundef nonnull @__func__.H5B2_create, i32 noundef 146, i64 noundef %23, i64 noundef %24, ptr noundef nonnull @.str.2) #7
  br label %.thread33.thread

26:                                               ; preds = %19
  %27 = tail call ptr @H5B2__hdr_protect(ptr noundef %0, i64 noundef %13, ptr noundef %2, i32 noundef 0) #7
  %28 = icmp eq ptr %27, null
  br i1 %28, label %29, label %33

29:                                               ; preds = %26
  %30 = load i64, ptr @H5E_BTREE_g, align 8, !tbaa !11
  %31 = load i64, ptr @H5E_CANTPROTECT_g, align 8, !tbaa !11
  %32 = tail call i32 (ptr, ptr, i32, i64, i64, ptr, ...) @H5E_printf_stack(ptr noundef nonnull @.str, ptr noundef nonnull @__func__.H5B2_create, i32 noundef 150, i64 noundef %30, i64 noundef %31, ptr noundef nonnull @.str.3) #7
  br label %.thread33.thread42

33:                                               ; preds = %26
  store ptr %27, ptr %20, align 8, !tbaa !13
  %34 = tail call i32 @H5B2__hdr_incr(ptr noundef nonnull %27) #7
  %35 = icmp slt i32 %34, 0
  br i1 %35, label %36, label %40

36:                                               ; preds = %33
  %37 = load i64, ptr @H5E_BTREE_g, align 8, !tbaa !11
  %38 = load i64, ptr @H5E_CANTINC_g, align 8, !tbaa !11
  %39 = tail call i32 (ptr, ptr, i32, i64, i64, ptr, ...) @H5E_printf_stack(ptr noundef nonnull @.str, ptr noundef nonnull @__func__.H5B2_create, i32 noundef 156, i64 noundef %37, i64 noundef %38, ptr noundef nonnull @.str.4) #7
  br label %49

40:                                               ; preds = %33
  %41 = tail call i32 @H5B2__hdr_fuse_incr(ptr noundef nonnull %27) #7
  %42 = icmp slt i32 %41, 0
  br i1 %42, label %43, label %47

43:                                               ; preds = %40
  %44 = load i64, ptr @H5E_BTREE_g, align 8, !tbaa !11
  %45 = load i64, ptr @H5E_CANTINC_g, align 8, !tbaa !11
  %46 = tail call i32 (ptr, ptr, i32, i64, i64, ptr, ...) @H5E_printf_stack(ptr noundef nonnull @.str, ptr noundef nonnull @__func__.H5B2_create, i32 noundef 161, i64 noundef %44, i64 noundef %45, ptr noundef nonnull @.str.5) #7
  br label %49

47:                                               ; preds = %40
  %48 = getelementptr inbounds nuw i8, ptr %20, i64 8
  store ptr %0, ptr %48, align 8, !tbaa !18
  br label %49

49:                                               ; preds = %36, %43, %47
  %.1 = phi ptr [ null, %36 ], [ null, %43 ], [ %20, %47 ]
  %50 = tail call i32 @H5B2__hdr_unprotect(ptr noundef nonnull %27, i32 noundef 0) #7
  %51 = icmp slt i32 %50, 0
  br i1 %51, label %52, label %.thread33

52:                                               ; preds = %49
  %53 = load i64, ptr @H5E_BTREE_g, align 8, !tbaa !11
  %54 = load i64, ptr @H5E_CANTUNPROTECT_g, align 8, !tbaa !11
  %55 = tail call i32 (ptr, ptr, i32, i64, i64, ptr, ...) @H5E_printf_stack(ptr noundef nonnull @.str, ptr noundef nonnull @__func__.H5B2_create, i32 noundef 171, i64 noundef %53, i64 noundef %54, ptr noundef nonnull @.str.6) #7
  br label %.thread33.thread42

.thread33:                                        ; preds = %49
  %56 = icmp eq ptr %.1, null
  br i1 %56, label %.thread33.thread42, label %.thread33.thread

.thread33.thread42:                               ; preds = %29, %52, %.thread33
  %57 = tail call i32 @H5B2_close(ptr noundef nonnull %20)
  %58 = icmp slt i32 %57, 0
  br i1 %58, label %59, label %.thread33.thread

59:                                               ; preds = %.thread33.thread42
  %60 = load i64, ptr @H5E_BTREE_g, align 8, !tbaa !11
  %61 = load i64, ptr @H5E_CANTCLOSEOBJ_g, align 8, !tbaa !11
  %62 = tail call i32 (ptr, ptr, i32, i64, i64, ptr, ...) @H5E_printf_stack(ptr noundef nonnull @.str, ptr noundef nonnull @__func__.H5B2_create, i32 noundef 174, i64 noundef %60, i64 noundef %61, ptr noundef nonnull @.str.7) #7
  br label %.thread33.thread

.thread33.thread:                                 ; preds = %15, %22, %.thread33, %59, %.thread33.thread42, %9
  %.0 = phi ptr [ null, %59 ], [ null, %.thread33.thread42 ], [ %.1, %.thread33 ], [ null, %9 ], [ null, %22 ], [ null, %15 ]
  ret ptr %.0
}